(dp1
S'output'
p2
S"<type 'exceptions.NameError'> name 'data' is not defined"
p3
sS'layer'
p4
S'/home/pi/web2py/applications/Tank/views/default/graphs.html'
p5
sS'code'
p6
S'response.write(\'<!--[if HTML5]><![endif]-->\\n<!DOCTYPE html>\\n<!-- paulirish.com/2008/conditional-stylesheets-vs-css-hacks-answer-neither/ -->\\n<!--[if lt IE 7]><html class="ie ie6 ie-lte9 ie-lte8 ie-lte7 no-js" lang="\', escape=False)\nresponse.write(T.accepted_language or \'en\')\nresponse.write(\'"> <![endif]-->\\n<!--[if IE 7]><html class="ie ie7 ie-lte9 ie-lte8 ie-lte7 no-js" lang="\', escape=False)\nresponse.write(T.accepted_language or \'en\')\nresponse.write(\'"> <![endif]-->\\n<!--[if IE 8]><html class="ie ie8 ie-lte9 ie-lte8 no-js" lang="\', escape=False)\nresponse.write(T.accepted_language or \'en\')\nresponse.write(\'"> <![endif]-->\\n<!--[if IE 9]><html class="ie9 ie-lte9 no-js" lang="\', escape=False)\nresponse.write(T.accepted_language or \'en\')\nresponse.write(\'"> <![endif]-->\\n<!--[if (gt IE 9)|!(IE)]><!--> <html class="no-js" lang="\', escape=False)\nresponse.write(T.accepted_language or \'en\')\nresponse.write(\'"> <!--<![endif]-->\\n<head>\\n<title>PiTank</title>\\n  <!--[if !HTML5]>\\n      <meta http-equiv="X-UA-Compatible" content="IE=edge\', escape=False)\nresponse.write(not request.is_local and \',chrome=1\' or \'\')\nresponse.write(\'">\\n  <![endif]-->\\n  <!-- www.phpied.com/conditional-comments-block-downloads/ -->\\n  <!-- Always force latest IE rendering engine\\n       (even in intranet) & Chrome Frame\\n       Remove this if you use the .htaccess -->\\n\\t   \\n  <meta charset="utf-8" />\\n\\n  <!-- http://dev.w3.org/html5/markup/meta.name.html -->\\n  <meta name="application-name" content="PiTank" />\\n\\n  <!-- Speaking of Google, don\\\'t forget to set your site up:\\n       http://google.com/webmasters -->\\n  <meta name="google-site-verification" content="" />\\n\\n  <!--  Mobile Viewport Fix\\n        j.mp/mobileviewport & davidbcalhoun.com/2010/viewport-metatag\\n        device-width: Occupy full width of the screen in its current orientation\\n        initial-scale = 1.0 retains dimensions instead of zooming out if page height > device height\\n        user-scalable = yes allows the user to zoom in -->\\n  <meta name="viewport" content="width=device-width, initial-scale=1.0" />\\n\\n  <link rel="shortcut icon" href="\', escape=False)\nresponse.write(URL(\'static\',\'images/favicon.ico\'))\nresponse.write(\'" type="image/x-icon">\\n  <link rel="apple-touch-icon" href="\', escape=False)\nresponse.write(URL(\'static\',\'images/favicon.png\'))\nresponse.write(\'">\\n\\n  <!-- All JavaScript at the bottom, except for Modernizr which enables\\n       HTML5 elements & feature detects -->\\n  <script src="\', escape=False)\nresponse.write(URL(\'static\',\'js/modernizr.custom.js\'))\nresponse.write(\'"></script>\\n\\n  <!-- include stylesheets -->\\n  \', escape=False)\nresponse.files.append(URL(\'static\',\'css/web2py.css\'))\nresponse.files.append(URL(\'static\',\'css/bootstrap.min.css\'))\nresponse.files.append(URL(\'static\',\'css/bootstrap-responsive.min.css\'))\nresponse.files.append(URL(\'static\',\'css/web2py_bootstrap.css\'))\nresponse.write(\'\\n\\n  \', escape=False)\nresponse.write(\'<script type="text/javascript"><!--\\n    // These variables are used by the web2py_ajax_init function in web2py_ajax.js (which is loaded below).\\n    var w2p_ajax_confirm_message = "\', escape=False)\nresponse.write(T(\'Are you sure you want to delete this object?\'))\nresponse.write(\'";\\n    var w2p_ajax_date_format = "\', escape=False)\nresponse.write(T(\'%Y-%m-%d\'))\nresponse.write(\'";\\n    var w2p_ajax_datetime_format = "\', escape=False)\nresponse.write(T(\'%Y-%m-%d %H:%M:%S\'))\nresponse.write(\'";\\n    var ajax_error_500 = \\\'\', escape=False)\nresponse.write(XML(T(\'An error occured, please %s the page\') % A(T(\'reload\'), _href=URL(args=request.args, vars=request.get_vars))))\nresponse.write("\'\\n    //--></script>\\n", escape=False)\nresponse.files.insert(0,URL(\'static\',\'js/jquery.js\'))\nresponse.files.insert(1,URL(\'static\',\'css/calendar.css\'))\nresponse.files.insert(2,URL(\'static\',\'js/calendar.js\'))\nresponse.files.insert(3,URL(\'static\',\'js/web2py.js\'))\nresponse.files.insert(4,URL(r=request,c=\'static\',f=\'jquery.sparkline.js\'))\nresponse.files.insert(5,URL(r=request,c=\'static\',f=\'jquery.timers-1.2.js\'))\nresponse.include_meta()\nresponse.include_files()\nresponse.write(\'\\n\', escape=False)\nresponse.write(\'\\n\\n  \', escape=False)\n# using sidebars need to know what sidebar you want to use\nleft_sidebar_enabled = globals().get(\'left_sidebar_enabled\',False)\nright_sidebar_enabled = globals().get(\'right_sidebar_enabled\',False)\nmiddle_columns = {0:\'span12\',1:\'span9\',2:\'span6\'}[\n(left_sidebar_enabled and 1 or 0)+(right_sidebar_enabled and 1 or 0)]\nresponse.write(\'\\n\\n  <!-- uncomment here to load jquery-ui\\n       <link rel="stylesheet" href="http://ajax.googleapis.com/ajax/libs/jqueryui/1.8.16/themes/base/jquery-ui.css" type="text/css" media="all" />\\n       <script src="http://ajax.googleapis.com/ajax/libs/jqueryui/1.8.16/jquery-ui.min.js" type="text/javascript"></script>\\n       uncomment to load jquery-ui //-->\\n  <noscript><link href="\', escape=False)\nresponse.write(URL(\'static\', \'css/web2py_bootstrap_nojs.css\'))\nresponse.write(\'" rel="stylesheet" type="text/css" /></noscript>\\n  \', escape=False)\nresponse.write(\'\\n</head>\\n\\n<body>\\n  <!-- Navbar ================================================== -->\\n  <div class="navbar navbar-inverse navbar-fixed-top">\\n    <div class="flash">\', escape=False)\nresponse.write(response.flash or \'\')\nresponse.write(\'</div>\\n    <div class="navbar-inner">\\n      <div class="container">\\n        <!-- the next tag is necessary for bootstrap menus, do not remove -->\\n        <button type="button" class="btn btn-navbar" data-toggle="collapse" data-target=".nav-collapse">\\n          <span class="icon-bar"></span>\\n          <span class="icon-bar"></span>\\n          <span class="icon-bar"></span>\\n        </button>\\n\\t\', escape=False)\nresponse.write(response.logo or \'\')\nresponse.write(\'\\n        <ul id="navbar" class="nav pull-right">\', escape=False)\nresponse.write(\'auth\' in globals() and auth.navbar(mode="dropdown") or \'\')\nresponse.write(\'</ul>\\n        <div class="nav-collapse">\\n          \', escape=False)\nis_mobile=request.user_agent().is_mobile\nresponse.write(\'\\n          \', escape=False)\nif response.menu:\n    response.write(\'\\n          \', escape=False)\n    response.write(MENU(response.menu, _class=\'mobile-menu nav\' if is_mobile else \'nav\',mobile=is_mobile,li_class=\'dropdown\',ul_class=\'dropdown-menu\'))\n    response.write(\'\\n          \', escape=False)\n    pass\nresponse.write(\'\\n        </div><!--/.nav-collapse -->\\n      </div>\\n    </div>\\n  </div><!--/top navbar -->\\n\\n  <div class="container">\\n    <!-- Masthead ================================================== -->\\n    <header class="mastheader row" id="header">\\n        <div class="span12">\\n            <div class="page-header">\\n                <h1>\\n                    PiTank\\n                    <small>The Raspberry Pi Tank Controller</small>\\n                </h1>\\n            </div>\\n        </div>\\n\\t\', escape=False)\npass\nresponse.write(\'\\n    </header>\\n<div style="position:absolute; left:1000px; top:050px"> <img src="http://i291.photobucket.com/albums/ll320/zedely666/linkies/Blinky_Art.gif~original"></div> \\n    <section id="main" class="main row">\\n        \', escape=False)\nif left_sidebar_enabled:\n    response.write(\'\\n        <div class="span3 left-sidebar">\\n            \', escape=False)\n    response.write(\'\\n            <h3>Left Sidebar</h3>\\n            <p></p>\\n            \', escape=False)\n    response.write(\'\\n        </div>\\n        \', escape=False)\n    pass\nresponse.write(\'\\n\\n        <div class="\', escape=False)\nresponse.write(middle_columns)\nresponse.write(\'">\\n            \', escape=False)\nresponse.write(\'\\n            \', escape=False)\nresponse.write(\'\\n<script src="\', escape=False)\nresponse.write(URL(\'static\',\'js/jquery.js\'))\nresponse.write(\'"></script>\\n<script src="\', escape=False)\nresponse.write(URL(\'static\',\'js/jquery.flot.min.js\'))\nresponse.write(\'"></script>\\n<script src="\', escape=False)\nresponse.write(URL(\'static\',\'js/jquery.flot.time.js\'))\nresponse.write(\'"></script>\\n<script src="\', escape=False)\nresponse.write(URL(\'static\',\'js/jquery.flot.axislabels.js\'))\nresponse.write(\'"></script>\\n<!-- CSS -->\\n<style type="text/css">\\n#flotcontainer {\\n    width: 600px;\\n    height: 200px;\\n    text-align: center;\\n    margin: 0 auto;\\n}\\n</style>\\n \\n<!-- Javascript -->\\n<script>\\nvar data = [];\\nvar dataset;\\nvar totalPoints = 50;\\nvar updateInterval = 1000;\\nvar now = new Date().getTime();\\n \\n \\nfunction GetData() {\\n    data.shift();\\n \\n    while (data.length < totalPoints) {   \\n        var y; \\n        function dataload(data) {\\n        return data;\\n        }\\n        $.get(\\\'graphdata.load\\\', dataload);\\n        y=\', escape=False)\nresponse.write(XML(data))\nresponse.write(\';\\n        alert(y);\\n        var temp = [now += updateInterval, y];\\n \\n        data.push(temp);\\n    }\\n}\\n \\nvar options = {\\n    series: {\\n        lines: {\\n            show: true,\\n            lineWidth: 1.2,\\n            fill: true\\n        }\\n    },\\n    xaxis: {\\n        mode: "time",\\n        tickSize: [2, "second"],\\n        tickFormatter: function (v, axis) {\\n            var date = new Date(v);\\n \\n            if (date.getSeconds() % 20 == 0) {\\n                var hours = date.getHours() < 10 ? "0" + date.getHours() : date.getHours();\\n                var minutes = date.getMinutes() < 10 ? "0" + date.getMinutes() : date.getMinutes();\\n                var seconds = date.getSeconds() < 10 ? "0" + date.getSeconds() : date.getSeconds();\\n \\n                return hours + ":" + minutes + ":" + seconds;\\n            } else {\\n                return "";\\n            }\\n        },\\n        axisLabel: "Time",\\n        axisLabelUseCanvas: true,\\n        axisLabelFontSizePixels: 12,\\n        axisLabelFontFamily: \\\'Verdana, Arial\\\',\\n        axisLabelPadding: 10\\n    },\\n    yaxis: {\\n        min: 20,\\n        max: 30,        \\n        tickSize: 1,\\n        tickFormatter: function (v, axis) {\\n            if (v % 5 == 0) {\\n                return v + "*C";\\n            } else {\\n                return "";\\n            }\\n        },\\n        axisLabel: "Water Temperature",\\n        axisLabelUseCanvas: true,\\n        axisLabelFontSizePixels: 12,\\n        axisLabelFontFamily: \\\'Verdana, Arial\\\',\\n        axisLabelPadding: 6\\n    },\\n    legend: {        \\n        labelBoxBorderColor: "#fff"\\n    }\\n};\\n \\n$(document).ready(function () {\\n    GetData();\\n \\n    dataset = [\\n        { label: "Water Temperature", data: data }\\n    ];\\n\\n \\n    $.plot($("#flotcontainer"), dataset, options);\\n    \\n    function update() {\\n        GetData();\\n \\n        $.plot($("#flotcontainer"), dataset, options);\\n        setTimeout(update, updateInterval);\\n    }\\n \\n    update();\\n});\\n \\n \\n \\n</script>\\n \\n<!-- HTML -->\\n<div id="flotcontainer"></div>\\n\', escape=False)\nresponse.write(\'\\n            \', escape=False)\nresponse.write(\'\\n        </div>\\n\\n        \', escape=False)\nif right_sidebar_enabled:\n    response.write(\'\\n        <div class="span3">\\n            \', escape=False)\n    response.write(\'\\n            <h3>Right Sidebar</h3>\\n            <p></p>\\n            \', escape=False)\n    response.write(\'\\n        </div>\\n        \', escape=False)\n    pass\nresponse.write(\'\\n    </section><!--/main-->\\n\\n    <!-- Footer ================================================== -->\\n    <div class="row">\\n        <footer class="footer span12" id="footer">\\n            <div class="footer-content">\\n                \', escape=False)\nresponse.write(\' <!-- this is default footer -->\\n                <div class="copyright pull-left">\', escape=False)\nresponse.write(T(\'Copyright\'))\nresponse.write(\' &#169; \', escape=False)\nresponse.write(request.now.year)\nresponse.write(\'</div>\\n                <div id="poweredBy" class="pull-right">\\n                    \', escape=False)\nresponse.write(T(\'Powered by\'))\nresponse.write(\'\\n                    <a href="http://www.web2py.com/">web2py</a>\\n                </div>\\n                \', escape=False)\nresponse.write(\'\\n            </div>\\n        </footer>\\n    </div>\\n\\n  </div> <!-- /container -->\\n\\n  <!-- The javascript =============================================\\n       (Placed at the end of the document so the pages load faster) -->\\n  <script src="\', escape=False)\nresponse.write(URL(\'static\',\'js/bootstrap.min.js\'))\nresponse.write(\'"></script>\\n  <script src="\', escape=False)\nresponse.write(URL(\'static\',\'js/web2py_bootstrap.js\'))\nresponse.write(\'"></script>\\n  <!--[if lt IE 7 ]>\\n      <script src="\', escape=False)\nresponse.write(URL(\'static\',\'js/dd_belatedpng.js\'))\nresponse.write(\'"></script>\\n      <script> DD_belatedPNG.fix(\\\'img, .png_bg\\\'); //fix any <img> or .png_bg background-images </script>\\n      <![endif]-->\\n  \\n  \', escape=False)\nif response.google_analytics_id:\n    response.write(\'\\n  <script src="\', escape=False)\n    response.write(URL(\'static\',\'js/analytics.min.js\'))\n    response.write(\'"></script>\\n  <script type="text/javascript">\\n  analytics.initialize({\\n    \\\'Google Analytics\\\':{trackingId:\\\'\', escape=False)\n    response.write(response.google_analytics_id)\n    response.write("\'} \\n  });</script>\\n  ", escape=False)\n    pass\nresponse.write(\'\\n  <script src="\', escape=False)\nresponse.write(URL(\'static\',\'js/share.js\',vars=dict(static=URL(\'static\',\'images\'))))\nresponse.write(\'"></script>\\n</body>\\n</html>\\n\', escape=False)'
p7
sS'snapshot'
p8
(dp9
S'exception'
p10
(dp11
S'__hash__'
p12
S"<method-wrapper '__hash__' of exceptions.NameError object>"
p13
sS'__setattr__'
p14
S"<method-wrapper '__setattr__' of exceptions.NameError object>"
p15
sS'__reduce_ex__'
p16
S'<built-in method __reduce_ex__ of exceptions.NameError object>'
p17
sS'__getslice__'
p18
S"<method-wrapper '__getslice__' of exceptions.NameError object>"
p19
sS'__getitem__'
p20
S"<method-wrapper '__getitem__' of exceptions.NameError object>"
p21
sS'__setstate__'
p22
S'<built-in method __setstate__ of exceptions.NameError object>'
p23
sS'__reduce__'
p24
S'<built-in method __reduce__ of exceptions.NameError object>'
p25
sS'__str__'
p26
S"<method-wrapper '__str__' of exceptions.NameError object>"
p27
sS'__format__'
p28
S'<built-in method __format__ of exceptions.NameError object>'
p29
sS'__getattribute__'
p30
S"<method-wrapper '__getattribute__' of exceptions.NameError object>"
p31
sS'__class__'
p32
S"<type 'exceptions.NameError'>"
p33
sS'__unicode__'
p34
S'<built-in method __unicode__ of exceptions.NameError object>'
p35
sS'__delattr__'
p36
S"<method-wrapper '__delattr__' of exceptions.NameError object>"
p37
sS'__subclasshook__'
p38
S'<built-in method __subclasshook__ of type object>'
p39
sS'__repr__'
p40
S"<method-wrapper '__repr__' of exceptions.NameError object>"
p41
sS'args'
p42
S'("name \'data\' is not defined",)'
p43
sS'__dict__'
p44
S'{}'
p45
sS'__sizeof__'
p46
S'<built-in method __sizeof__ of exceptions.NameError object>'
p47
sS'__doc__'
p48
S"'Name not found globally.'"
p49
sS'__init__'
p50
S"<method-wrapper '__init__' of exceptions.NameError object>"
p51
sS'__new__'
p52
S'<built-in method __new__ of type object>'
p53
ssS'evalue'
p54
S"name 'data' is not defined"
p55
sS'request'
p56
cgluon.html
XML_unpickle
p57
(S's\xc6P\x00\x00<div><table><tr><td style="font-weight:bold;vertical-align:top">ajax</td><td valign="top">:</td><td><div>False</div></td></tr><tr><td style="font-weight:bold;vertical-align:top">application</td><td valign="top">:</td><td><div>Tank</div></td></tr><tr><td style="font-weight:bold;vertical-align:top">args</td><td valign="top">:</td><td><div><table></table></div></td></tr><tr><td style="font-weight:bold;vertical-align:top">body</td><td valign="top">:</td><td><div>&lt;cStringIO.StringO object at 0x1819440&gt;</div></td></tr><tr><td style="font-weight:bold;vertical-align:top">cid</td><td valign="top">:</td><td><div>None</div></td></tr><tr><td style="font-weight:bold;vertical-align:top">client</td><td valign="top">:</td><td><div>192.168.1.79</div></td></tr><tr><td style="font-weight:bold;vertical-align:top">controller</td><td valign="top">:</td><td><div>default</div></td></tr><tr><td style="font-weight:bold;vertical-align:top">cookies</td><td valign="top">:</td><td><div><table><tr><td style="font-weight:bold;vertical-align:top">session_id_admin</td><td valign="top">:</td><td><div>192.168.1.79-cbd6eb46-5311-40fd-b545-d334f4d89bbc<table><tr><td style="font-weight:bold;vertical-align:top">comment</td><td valign="top">:</td><td><div></div></td></tr><tr><td style="font-weight:bold;vertical-align:top">domain</td><td valign="top">:</td><td><div></div></td></tr><tr><td style="font-weight:bold;vertical-align:top">expires</td><td valign="top">:</td><td><div></div></td></tr><tr><td style="font-weight:bold;vertical-align:top">httponly</td><td valign="top">:</td><td><div></div></td></tr><tr><td style="font-weight:bold;vertical-align:top">max-age</td><td valign="top">:</td><td><div></div></td></tr><tr><td style="font-weight:bold;vertical-align:top">path</td><td valign="top">:</td><td><div></div></td></tr><tr><td style="font-weight:bold;vertical-align:top">secure</td><td valign="top">:</td><td><div></div></td></tr><tr><td style="font-weight:bold;vertical-align:top">version</td><td valign="top">:</td><td><div></div></td></tr></table></div></td></tr><tr><td style="font-weight:bold;vertical-align:top">session_id_tank</td><td valign="top">:</td><td><div>192.168.1.79-55d98bff-cae2-4dd5-8acf-19924c266696<table><tr><td style="font-weight:bold;vertical-align:top">comment</td><td valign="top">:</td><td><div></div></td></tr><tr><td style="font-weight:bold;vertical-align:top">domain</td><td valign="top">:</td><td><div></div></td></tr><tr><td style="font-weight:bold;vertical-align:top">expires</td><td valign="top">:</td><td><div></div></td></tr><tr><td style="font-weight:bold;vertical-align:top">httponly</td><td valign="top">:</td><td><div></div></td></tr><tr><td style="font-weight:bold;vertical-align:top">max-age</td><td valign="top">:</td><td><div></div></td></tr><tr><td style="font-weight:bold;vertical-align:top">path</td><td valign="top">:</td><td><div></div></td></tr><tr><td style="font-weight:bold;vertical-align:top">secure</td><td valign="top">:</td><td><div></div></td></tr><tr><td style="font-weight:bold;vertical-align:top">version</td><td valign="top">:</td><td><div></div></td></tr></table></div></td></tr></table></div></td></tr><tr><td style="font-weight:bold;vertical-align:top">env</td><td valign="top">:</td><td><div><table><tr><td style="font-weight:bold;vertical-align:top">app_folders</td><td valign="top">:</td><td><div>set([&#x27;/home/pi/web2py/applications/admin/&#x27;, &#x27;/home/pi/web2py/applications/welcome/&#x27;, &#x27;/home/pi/web2py/applications/Tank/&#x27;])</div></td></tr><tr><td style="font-weight:bold;vertical-align:top">applications_parent</td><td valign="top">:</td><td><div>/home/pi/web2py</div></td></tr><tr><td style="font-weight:bold;vertical-align:top">cmd_args</td><td valign="top">:</td><td><div><table></table></div></td></tr><tr><td style="font-weight:bold;vertical-align:top">cmd_options</td><td valign="top">:</td><td><div>&lt;Values at 0x14e3788: {&#x27;verbose&#x27;: False, &#x27;ip&#x27;: &#x27;127.0.0.1&#x27;, &#x27;with_scheduler&#x27;: False, &#x27;ips&#x27;: [&#x27;127.0.1.1&#x27;], &#x27;shutdown_timeout&#x27;: 5, &#x27;taskbar&#x27;: False, &#x27;with_coverage&#x27;: False, &#x27;port&#x27;: 8000, &#x27;maxthreads&#x27;: None, &#x27;softcron&#x27;: False, &#x27;server_name&#x27;: &#x27;raspberrypi&#x27;, &#x27;bpython&#x27;: False, &#x27;nogui&#x27;: False, &#x27;pid_filename&#x27;: &#x27;httpserver.pid&#x27;, &#x27;extcron&#x27;: False, &#x27;runcron&#x27;: True, &#x27;run_system_tests&#x27;: False, &#x27;test&#x27;: None, &#x27;folder&#x27;: &#x27;/home/pi/web2py&#x27;, &#x27;config&#x27;: &#x27;&#x27;, &#x27;import_models&#x27;: False, &#x27;winservice&#x27;: &#x27;&#x27;, &#x27;shell&#x27;: None, &#x27;run&#x27;: &#x27;&#x27;, &#x27;log_filename&#x27;: &#x27;httpserver.log&#x27;, &#x27;debuglevel&#x27;: 30, &#x27;args&#x27;: [&#x27;&#x27;], &#x27;socket_timeout&#x27;: 5, &#x27;ssl_ca_certificate&#x27;: None, &#x27;scheduler&#x27;: None, &#x27;profiler_filename&#x27;: None, &#x27;ssl_private_key&#x27;: &#x27;&#x27;, &#x27;scheduler_groups&#x27;: None, &#x27;password&#x27;: &#x27;&lt;ask&gt;&#x27;, &#x27;request_queue_size&#x27;: 5, &#x27;ssl_certificate&#x27;: &#x27;&#x27;, &#x27;cronjob&#x27;: False, &#x27;numthreads&#x27;: None, &#x27;quiet&#x27;: False, &#x27;interfaces&#x27;: None, &#x27;minthreads&#x27;: None, &#x27;timeout&#x27;: 10, &#x27;plain&#x27;: False, &#x27;nobanner&#x27;: False}&gt;</div></td></tr><tr><td style="font-weight:bold;vertical-align:top">db_sessions</td><td valign="top">:</td><td><div>set([])</div></td></tr><tr><td style="font-weight:bold;vertical-align:top">debugging</td><td valign="top">:</td><td><div>True</div></td></tr><tr><td style="font-weight:bold;vertical-align:top">gluon_parent</td><td valign="top">:</td><td><div>/home/pi/web2py</div></td></tr><tr><td style="font-weight:bold;vertical-align:top">http_accept</td><td valign="top">:</td><td><div>text/html,application/xhtml+xml,application/xml;q=0.9,*/*;q=0.8</div></td></tr><tr><td style="font-weight:bold;vertical-align:top">http_accept_encoding</td><td valign="top">:</td><td><div>gzip,deflate,sdch</div></td></tr><tr><td style="font-weight:bold;vertical-align:top">http_accept_language</td><td valign="top">:</td><td><div>en-GB,en-US;q=0.8,en;q=0.6</div></td></tr><tr><td style="font-weight:bold;vertical-align:top">http_cache_control</td><td valign="top">:</td><td><div>max-age=0</div></td></tr><tr><td style="font-weight:bold;vertical-align:top">http_connection</td><td valign="top">:</td><td><div>keep-alive</div></td></tr><tr><td style="font-weight:bold;vertical-align:top">http_cookie</td><td valign="top">:</td><td><div>session_id_tank=192.168.1.79-55d98bff-cae2-4dd5-8acf-19924c266696; session_id_admin=192.168.1.79-cbd6eb46-5311-40fd-b545-d334f4d89bbc</div></td></tr><tr><td style="font-weight:bold;vertical-align:top">http_host</td><td valign="top">:</td><td><div>192.168.1.119</div></td></tr><tr><td style="font-weight:bold;vertical-align:top">http_referer</td><td valign="top">:</td><td><div>http://192.168.1.119/Tank/default/index</div></td></tr><tr><td style="font-weight:bold;vertical-align:top">http_user_agent</td><td valign="top">:</td><td><div>Mozilla/5.0 (Windows NT 6.1; WOW64) AppleWebKit/537.36 (KHTML, like Gecko) Chrome/29.0.1547.57 Safari/537.36</div></td></tr><tr><td style="font-weight:bold;vertical-align:top">is_jython</td><td valign="top">:</td><td><div>False</div></td></tr><tr><td style="font-weight:bold;vertical-align:top">is_pypy</td><td valign="top">:</td><td><div>False</div></td></tr><tr><td style="font-weight:bold;vertical-align:top">local_hosts</td><td valign="top">:</td><td><div><table><tr><td><div>raspberrypi</div></td></tr><tr><td><div>::1</div></td></tr><tr><td><div>127.0.1.1</div></td></tr><tr><td><div>::ffff:127.0.0.1</div></td></tr><tr><td><div>127.0.0.1</div></td></tr></table></div></td></tr><tr><td style="font-weight:bold;vertical-align:top">path_info</td><td valign="top">:</td><td><div>/Tank/default/graphs</div></td></tr><tr><td style="font-weight:bold;vertical-align:top">query_string</td><td valign="top">:</td><td><div></div></td></tr><tr><td style="font-weight:bold;vertical-align:top">remote_addr</td><td valign="top">:</td><td><div>192.168.1.79</div></td></tr><tr><td style="font-weight:bold;vertical-align:top">remote_port</td><td valign="top">:</td><td><div>54047</div></td></tr><tr><td style="font-weight:bold;vertical-align:top">request_method</td><td valign="top">:</td><td><div>GET</div></td></tr><tr><td style="font-weight:bold;vertical-align:top">request_uri</td><td valign="top">:</td><td><div>/Tank/default/graphs</div></td></tr><tr><td style="font-weight:bold;vertical-align:top">script_name</td><td valign="top">:</td><td><div></div></td></tr><tr><td style="font-weight:bold;vertical-align:top">server_name</td><td valign="top">:</td><td><div>raspberrypi</div></td></tr><tr><td style="font-weight:bold;vertical-align:top">server_port</td><td valign="top">:</td><td><div>80</div></td></tr><tr><td style="font-weight:bold;vertical-align:top">server_protocol</td><td valign="top">:</td><td><div>HTTP/1.1</div></td></tr><tr><td style="font-weight:bold;vertical-align:top">server_software</td><td valign="top">:</td><td><div>Rocket 1.2.6</div></td></tr><tr><td style="font-weight:bold;vertical-align:top">web2py_crontype</td><td valign="top">:</td><td><div>hard</div></td></tr><tr><td style="font-weight:bold;vertical-align:top">web2py_path</td><td valign="top">:</td><td><div>/home/pi/web2py</div></td></tr><tr><td style="font-weight:bold;vertical-align:top">web2py_version</td><td valign="top">:</td><td><div>2.5.1-stable+timestamp.2013.06.06.15.39.19</div></td></tr><tr><td style="font-weight:bold;vertical-align:top">wsgi_errors</td><td valign="top">:</td><td><div>&lt;open file &#x27;&lt;stderr&gt;&#x27;, mode &#x27;w&#x27; at 0xb6cae0d0&gt;</div></td></tr><tr><td style="font-weight:bold;vertical-align:top">wsgi_file_wrapper</td><td valign="top">:</td><td><div>&lt;class wsgiref.util.FileWrapper at 0x148c500&gt;</div></td></tr><tr><td style="font-weight:bold;vertical-align:top">wsgi_input</td><td valign="top">:</td><td><div>&lt;socket._fileobject object at 0x268c630&gt;</div></td></tr><tr><td style="font-weight:bold;vertical-align:top">wsgi_multiprocess</td><td valign="top">:</td><td><div>False</div></td></tr><tr><td style="font-weight:bold;vertical-align:top">wsgi_multithread</td><td valign="top">:</td><td><div>True</div></td></tr><tr><td style="font-weight:bold;vertical-align:top">wsgi_run_once</td><td valign="top">:</td><td><div>False</div></td></tr><tr><td style="font-weight:bold;vertical-align:top">wsgi_url_scheme</td><td valign="top">:</td><td><div>http</div></td></tr><tr><td style="font-weight:bold;vertical-align:top">wsgi_version</td><td valign="top">:</td><td><div><table><tr><td><div>1</div></td></tr><tr><td><div>0</div></td></tr></table></div></td></tr></table></div></td></tr><tr><td style="font-weight:bold;vertical-align:top">extension</td><td valign="top">:</td><td><div>html</div></td></tr><tr><td style="font-weight:bold;vertical-align:top">folder</td><td valign="top">:</td><td><div>/home/pi/web2py/applications/Tank/</div></td></tr><tr><td style="font-weight:bold;vertical-align:top">function</td><td valign="top">:</td><td><div>graphs</div></td></tr><tr><td style="font-weight:bold;vertical-align:top">get_vars</td><td valign="top">:</td><td><div><table></table></div></td></tr><tr><td style="font-weight:bold;vertical-align:top">global_settings</td><td valign="top">:</td><td><div><table><tr><td style="font-weight:bold;vertical-align:top">app_folders</td><td valign="top">:</td><td><div>set([&#x27;/home/pi/web2py/applications/admin/&#x27;, &#x27;/home/pi/web2py/applications/welcome/&#x27;, &#x27;/home/pi/web2py/applications/Tank/&#x27;])</div></td></tr><tr><td style="font-weight:bold;vertical-align:top">applications_parent</td><td valign="top">:</td><td><div>/home/pi/web2py</div></td></tr><tr><td style="font-weight:bold;vertical-align:top">cmd_args</td><td valign="top">:</td><td><div><table></table></div></td></tr><tr><td style="font-weight:bold;vertical-align:top">cmd_options</td><td valign="top">:</td><td><div>&lt;Values at 0x14e3788: {&#x27;verbose&#x27;: False, &#x27;ip&#x27;: &#x27;127.0.0.1&#x27;, &#x27;with_scheduler&#x27;: False, &#x27;ips&#x27;: [&#x27;127.0.1.1&#x27;], &#x27;shutdown_timeout&#x27;: 5, &#x27;taskbar&#x27;: False, &#x27;with_coverage&#x27;: False, &#x27;port&#x27;: 8000, &#x27;maxthreads&#x27;: None, &#x27;softcron&#x27;: False, &#x27;server_name&#x27;: &#x27;raspberrypi&#x27;, &#x27;bpython&#x27;: False, &#x27;nogui&#x27;: False, &#x27;pid_filename&#x27;: &#x27;httpserver.pid&#x27;, &#x27;extcron&#x27;: False, &#x27;runcron&#x27;: True, &#x27;run_system_tests&#x27;: False, &#x27;test&#x27;: None, &#x27;folder&#x27;: &#x27;/home/pi/web2py&#x27;, &#x27;config&#x27;: &#x27;&#x27;, &#x27;import_models&#x27;: False, &#x27;winservice&#x27;: &#x27;&#x27;, &#x27;shell&#x27;: None, &#x27;run&#x27;: &#x27;&#x27;, &#x27;log_filename&#x27;: &#x27;httpserver.log&#x27;, &#x27;debuglevel&#x27;: 30, &#x27;args&#x27;: [&#x27;&#x27;], &#x27;socket_timeout&#x27;: 5, &#x27;ssl_ca_certificate&#x27;: None, &#x27;scheduler&#x27;: None, &#x27;profiler_filename&#x27;: None, &#x27;ssl_private_key&#x27;: &#x27;&#x27;, &#x27;scheduler_groups&#x27;: None, &#x27;password&#x27;: &#x27;&lt;ask&gt;&#x27;, &#x27;request_queue_size&#x27;: 5, &#x27;ssl_certificate&#x27;: &#x27;&#x27;, &#x27;cronjob&#x27;: False, &#x27;numthreads&#x27;: None, &#x27;quiet&#x27;: False, &#x27;interfaces&#x27;: None, &#x27;minthreads&#x27;: None, &#x27;timeout&#x27;: 10, &#x27;plain&#x27;: False, &#x27;nobanner&#x27;: False}&gt;</div></td></tr><tr><td style="font-weight:bold;vertical-align:top">db_sessions</td><td valign="top">:</td><td><div>set([])</div></td></tr><tr><td style="font-weight:bold;vertical-align:top">debugging</td><td valign="top">:</td><td><div>True</div></td></tr><tr><td style="font-weight:bold;vertical-align:top">gluon_parent</td><td valign="top">:</td><td><div>/home/pi/web2py</div></td></tr><tr><td style="font-weight:bold;vertical-align:top">is_jython</td><td valign="top">:</td><td><div>False</div></td></tr><tr><td style="font-weight:bold;vertical-align:top">is_pypy</td><td valign="top">:</td><td><div>False</div></td></tr><tr><td style="font-weight:bold;vertical-align:top">local_hosts</td><td valign="top">:</td><td><div><table><tr><td><div>raspberrypi</div></td></tr><tr><td><div>::1</div></td></tr><tr><td><div>127.0.1.1</div></td></tr><tr><td><div>::ffff:127.0.0.1</div></td></tr><tr><td><div>127.0.0.1</div></td></tr></table></div></td></tr><tr><td style="font-weight:bold;vertical-align:top">web2py_crontype</td><td valign="top">:</td><td><div>hard</div></td></tr><tr><td style="font-weight:bold;vertical-align:top">web2py_version</td><td valign="top">:</td><td><div>2.5.1-stable+timestamp.2013.06.06.15.39.19</div></td></tr></table></div></td></tr><tr><td style="font-weight:bold;vertical-align:top">is_https</td><td valign="top">:</td><td><div>False</div></td></tr><tr><td style="font-weight:bold;vertical-align:top">is_local</td><td valign="top">:</td><td><div>False</div></td></tr><tr><td style="font-weight:bold;vertical-align:top">is_restful</td><td valign="top">:</td><td><div>False</div></td></tr><tr><td style="font-weight:bold;vertical-align:top">now</td><td valign="top">:</td><td><div>datetime.datetime(2013, 8, 26, 19, 50, 11, 448407)</div></td></tr><tr><td style="font-weight:bold;vertical-align:top">post_vars</td><td valign="top">:</td><td><div><table></table></div></td></tr><tr><td style="font-weight:bold;vertical-align:top">raw_args</td><td valign="top">:</td><td><div></div></td></tr><tr><td style="font-weight:bold;vertical-align:top">raw_extension</td><td valign="top">:</td><td><div>None</div></td></tr><tr><td style="font-weight:bold;vertical-align:top">url</td><td valign="top">:</td><td><div>/Tank/default/graphs</div></td></tr><tr><td style="font-weight:bold;vertical-align:top">utcnow</td><td valign="top">:</td><td><div>datetime.datetime(2013, 8, 26, 19, 50, 11, 448549)</div></td></tr><tr><td style="font-weight:bold;vertical-align:top">uuid</td><td valign="top">:</td><td><div>Tank/192.168.1.79.2013-08-26.19-50-11.3112f277-d3e6-4e3d-ad04-d705028641bb</div></td></tr><tr><td style="font-weight:bold;vertical-align:top">vars</td><td valign="top">:</td><td><div><table></table></div></td></tr><tr><td style="font-weight:bold;vertical-align:top">wsgi</td><td valign="top">:</td><td><div><table><tr><td style="font-weight:bold;vertical-align:top">environ</td><td valign="top">:</td><td><div><table><tr><td style="font-weight:bold;vertical-align:top">HTTP_ACCEPT</td><td valign="top">:</td><td><div>text/html,application/xhtml+xml,application/xml;q=0.9,*/*;q=0.8</div></td></tr><tr><td style="font-weight:bold;vertical-align:top">HTTP_ACCEPT_ENCODING</td><td valign="top">:</td><td><div>gzip,deflate,sdch</div></td></tr><tr><td style="font-weight:bold;vertical-align:top">HTTP_ACCEPT_LANGUAGE</td><td valign="top">:</td><td><div>en-GB,en-US;q=0.8,en;q=0.6</div></td></tr><tr><td style="font-weight:bold;vertical-align:top">HTTP_CACHE_CONTROL</td><td valign="top">:</td><td><div>max-age=0</div></td></tr><tr><td style="font-weight:bold;vertical-align:top">HTTP_CONNECTION</td><td valign="top">:</td><td><div>keep-alive</div></td></tr><tr><td style="font-weight:bold;vertical-align:top">HTTP_COOKIE</td><td valign="top">:</td><td><div>session_id_tank=192.168.1.79-55d98bff-cae2-4dd5-8acf-19924c266696; session_id_admin=192.168.1.79-cbd6eb46-5311-40fd-b545-d334f4d89bbc</div></td></tr><tr><td style="font-weight:bold;vertical-align:top">HTTP_HOST</td><td valign="top">:</td><td><div>192.168.1.119</div></td></tr><tr><td style="font-weight:bold;vertical-align:top">HTTP_REFERER</td><td valign="top">:</td><td><div>http://192.168.1.119/Tank/default/index</div></td></tr><tr><td style="font-weight:bold;vertical-align:top">HTTP_USER_AGENT</td><td valign="top">:</td><td><div>Mozilla/5.0 (Windows NT 6.1; WOW64) AppleWebKit/537.36 (KHTML, like Gecko) Chrome/29.0.1547.57 Safari/537.36</div></td></tr><tr><td style="font-weight:bold;vertical-align:top">PATH_INFO</td><td valign="top">:</td><td><div>/Tank/default/graphs</div></td></tr><tr><td style="font-weight:bold;vertical-align:top">QUERY_STRING</td><td valign="top">:</td><td><div></div></td></tr><tr><td style="font-weight:bold;vertical-align:top">REMOTE_ADDR</td><td valign="top">:</td><td><div>192.168.1.79</div></td></tr><tr><td style="font-weight:bold;vertical-align:top">REMOTE_PORT</td><td valign="top">:</td><td><div>54047</div></td></tr><tr><td style="font-weight:bold;vertical-align:top">REQUEST_METHOD</td><td valign="top">:</td><td><div>GET</div></td></tr><tr><td style="font-weight:bold;vertical-align:top">REQUEST_URI</td><td valign="top">:</td><td><div>/Tank/default/graphs</div></td></tr><tr><td style="font-weight:bold;vertical-align:top">SCRIPT_NAME</td><td valign="top">:</td><td><div></div></td></tr><tr><td style="font-weight:bold;vertical-align:top">SERVER_NAME</td><td valign="top">:</td><td><div>raspberrypi</div></td></tr><tr><td style="font-weight:bold;vertical-align:top">SERVER_PORT</td><td valign="top">:</td><td><div>80</div></td></tr><tr><td style="font-weight:bold;vertical-align:top">SERVER_PROTOCOL</td><td valign="top">:</td><td><div>HTTP/1.1</div></td></tr><tr><td style="font-weight:bold;vertical-align:top">SERVER_SOFTWARE</td><td valign="top">:</td><td><div>Rocket 1.2.6</div></td></tr><tr><td style="font-weight:bold;vertical-align:top">wsgi.errors</td><td valign="top">:</td><td><div>&lt;open file &#x27;&lt;stderr&gt;&#x27;, mode &#x27;w&#x27; at 0xb6cae0d0&gt;</div></td></tr><tr><td style="font-weight:bold;vertical-align:top">wsgi.file_wrapper</td><td valign="top">:</td><td><div>&lt;class wsgiref.util.FileWrapper at 0x148c500&gt;</div></td></tr><tr><td style="font-weight:bold;vertical-align:top">wsgi.input</td><td valign="top">:</td><td><div>&lt;cStringIO.StringO object at 0x1819440&gt;</div></td></tr><tr><td style="font-weight:bold;vertical-align:top">wsgi.multiprocess</td><td valign="top">:</td><td><div>False</div></td></tr><tr><td style="font-weight:bold;vertical-align:top">wsgi.multithread</td><td valign="top">:</td><td><div>True</div></td></tr><tr><td style="font-weight:bold;vertical-align:top">wsgi.run_once</td><td valign="top">:</td><td><div>False</div></td></tr><tr><td style="font-weight:bold;vertical-align:top">wsgi.url_scheme</td><td valign="top">:</td><td><div>http</div></td></tr><tr><td style="font-weight:bold;vertical-align:top">wsgi.version</td><td valign="top">:</td><td><div>1</div></td></tr></table></div></td></tr></table></div></td></tr></table></div>'
tRp58
sS'frames'
p59
(lp60
(dp61
S'file'
p62
S'/home/pi/web2py/gluon/restricted.py'
p63
sS'dump'
p64
(dp65
S'environment'
p66
S"{'A': <class 'gluon.html.A'>, 'ANY_OF': <class 'gluon.validators.ANY_OF'>, 'Auth': <class 'gluon.tools.Auth'>, 'B': <class 'gluon.html.B'>, 'BEAUTIFY': <class 'gluon.html.BEAUTIFY'>, 'BODY': <class 'gluon.html.BODY'>, 'BR': <class 'gluon.html.BR'>, 'BUTTON': <class 'gluon.html.BUTTON'>, 'CAT': <class 'gluon.html.CAT'>, 'CENTER': <class 'gluon.html.CENTER'>, ...}"
p67
sS'ccode'
p68
S'<code object <module> at 0x268fa40, file "/home/...ications/Tank/views/default/graphs.html", line 1>'
p69
ssS'lnum'
p70
I212
sS'lines'
p71
(dp72
I207
S'    try:'
p73
sI208
S'        if isinstance(code, types.CodeType):'
p74
sI209
S'            ccode = code'
p75
sI210
S'        else:'
p76
sI211
S'            ccode = compile2(code, layer)'
p77
sI212
S'        exec ccode in environment'
p78
sI213
S'    except HTTP:'
p79
sI214
S'        raise'
p80
sI215
S'    except RestrictedError:'
p81
sI216
S'        # do not encapsulate (obfuscate) the original RestrictedError'
p82
ssS'call'
p83
S'(code=\'response.write(\\\'<!--[if HTML5]><![endif]-->\\\\n<!D...(\\\'"></script>\\\\n</body>\\\\n</html>\\\\n\\\', escape=False)\', environment={\'A\': <class \'gluon.html.A\'>, \'ANY_OF\': <class \'gluon.validators.ANY_OF\'>, \'Auth\': <class \'gluon.tools.Auth\'>, \'B\': <class \'gluon.html.B\'>, \'BEAUTIFY\': <class \'gluon.html.BEAUTIFY\'>, \'BODY\': <class \'gluon.html.BODY\'>, \'BR\': <class \'gluon.html.BR\'>, \'BUTTON\': <class \'gluon.html.BUTTON\'>, \'CAT\': <class \'gluon.html.CAT\'>, \'CENTER\': <class \'gluon.html.CENTER\'>, ...}, layer=\'/home/pi/web2py/applications/Tank/views/default/graphs.html\')'
p84
sS'func'
p85
S'restricted'
p86
sa(dp87
g62
S'/home/pi/web2py/applications/Tank/views/default/graphs.html'
p88
sg64
(dp89
S'axisLabelPadding'
p90
S'undefined'
p91
ssg70
I87
sg71
(dp92
I96
S'response.write(\'\\n    </section><!--/main-->\\n\\n    <!-- Footer ================================================== -->\\n    <div class="row">\\n        <footer class="footer span12" id="footer">\\n            <div class="footer-content">\\n                \', escape=False)'
p93
sI97
S'response.write(\' <!-- this is default footer -->\\n                <div class="copyright pull-left">\', escape=False)'
p94
sI78
S'response.write(\'\\n<script src="\', escape=False)'
p95
sI79
S"response.write(URL('static','js/jquery.js'))"
p96
sI80
S'response.write(\'"></script>\\n<script src="\', escape=False)'
p97
sI81
S"response.write(URL('static','js/jquery.flot.min.js'))"
p98
sI82
S'response.write(\'"></script>\\n<script src="\', escape=False)'
p99
sI83
S"response.write(URL('static','js/jquery.flot.time.js'))"
p100
sI84
S'response.write(\'"></script>\\n<script src="\', escape=False)'
p101
sI85
S"response.write(URL('static','js/jquery.flot.axislabels.js'))"
p102
sI86
S'response.write(\'"></script>\\n<!-- CSS -->\\n<style type="text/css">\\n#flotcontainer {\\n    width: 600px;\\n    height: 200px;\\n    text-align: center;\\n    margin: 0 auto;\\n}\\n</style>\\n \\n<!-- Javascript -->\\n<script>\\nvar data = [];\\nvar dataset;\\nvar totalPoints = 50;\\nvar updateInterval = 1000;\\nvar now = new Date().getTime();\\n \\n \\nfunction GetData() {\\n    data.shift();\\n \\n    while (data.length < totalPoints) {   \\n        var y; \\n        function dataload(data) {\\n        return data;\\n        }\\n        $.get(\\\'graphdata.load\\\', dataload);\\n        y=\', escape=False)'
p103
sI87
S'response.write(XML(data))'
p104
sI88
S'response.write(\';\\n        alert(y);\\n        var temp = [now += updateInterval, y];\\n \\n        data.push(temp);\\n    }\\n}\\n \\nvar options = {\\n    series: {\\n        lines: {\\n            show: true,\\n            lineWidth: 1.2,\\n            fill: true\\n        }\\n    },\\n    xaxis: {\\n        mode: "time",\\n        tickSize: [2, "second"],\\n        tickFormatter: function (v, axis) {\\n            var date = new Date(v);\\n \\n            if (date.getSeconds() % 20 == 0) {\\n                var hours = date.getHours() < 10 ? "0" + date.getHours() : date.getHours();\\n                var minutes = date.getMinutes() < 10 ? "0" + date.getMinutes() : date.getMinutes();\\n                var seconds = date.getSeconds() < 10 ? "0" + date.getSeconds() : date.getSeconds();\\n \\n                return hours + ":" + minutes + ":" + seconds;\\n            } else {\\n                return "";\\n            }\\n        },\\n        axisLabel: "Time",\\n        axisLabelUseCanvas: true,\\n        axisLabelFontSizePixels: 12,\\n        axisLabelFontFamily: \\\'Verdana, Arial\\\',\\n        axisLabelPadding: 10\\n    },\\n    yaxis: {\\n        min: 20,\\n        max: 30,        \\n        tickSize: 1,\\n        tickFormatter: function (v, axis) {\\n            if (v % 5 == 0) {\\n                return v + "*C";\\n            } else {\\n                return "";\\n            }\\n        },\\n        axisLabel: "Water Temperature",\\n        axisLabelUseCanvas: true,\\n        axisLabelFontSizePixels: 12,\\n        axisLabelFontFamily: \\\'Verdana, Arial\\\',\\n        axisLabelPadding: 6\\n    },\\n    legend: {        \\n        labelBoxBorderColor: "#fff"\\n    }\\n};\\n \\n$(document).ready(function () {\\n    GetData();\\n \\n    dataset = [\\n        { label: "Water Temperature", data: data }\\n    ];\\n\\n \\n    $.plot($("#flotcontainer"), dataset, options);\\n    \\n    function update() {\\n        GetData();\\n \\n        $.plot($("#flotcontainer"), dataset, options);\\n        setTimeout(update, updateInterval);\\n    }\\n \\n    update();\\n});\\n \\n \\n \\n</script>\\n \\n<!-- HTML -->\\n<div id="flotcontainer"></div>\\n\', escape=False)'
p105
sI89
S"response.write('\\n            ', escape=False)"
p106
sI90
S"response.write('\\n        </div>\\n\\n        ', escape=False)"
p107
sI91
S'if right_sidebar_enabled:'
p108
sI92
S'    response.write(\'\\n        <div class="span3">\\n            \', escape=False)'
p109
sI93
S"    response.write('\\n            <h3>Right Sidebar</h3>\\n            <p></p>\\n            ', escape=False)"
p110
sI94
S"    response.write('\\n        </div>\\n        ', escape=False)"
p111
sI95
S'    pass'
p112
ssg83
S'()'
p113
sg85
S'<module>'
p114
sasS'pyver'
p115
S'Python 2.7.3: /usr/bin/python (prefix: /usr)'
p116
sS'session'
p117
g57
(S's\x1a\x00\x00\x00<div><table></table></div>'
tRp118
sS'etype'
p119
S"<type 'exceptions.NameError'>"
p120
sS'date'
p121
S'Mon Aug 26 19:50:13 2013'
p122
sS'response'
p123
g57
(S's\xca\x17\x00\x00<div><table><tr><td style="font-weight:bold;vertical-align:top">body</td><td valign="top">:</td><td><div>&lt;cStringIO.StringO object at 0x2658a00&gt;</div></td></tr><tr><td style="font-weight:bold;vertical-align:top">cookies</td><td valign="top">:</td><td><div><table><tr><td style="font-weight:bold;vertical-align:top">session_id_tank</td><td valign="top">:</td><td><div>192.168.1.79-55d98bff-cae2-4dd5-8acf-19924c266696<table><tr><td style="font-weight:bold;vertical-align:top">comment</td><td valign="top">:</td><td><div></div></td></tr><tr><td style="font-weight:bold;vertical-align:top">domain</td><td valign="top">:</td><td><div></div></td></tr><tr><td style="font-weight:bold;vertical-align:top">expires</td><td valign="top">:</td><td><div></div></td></tr><tr><td style="font-weight:bold;vertical-align:top">httponly</td><td valign="top">:</td><td><div></div></td></tr><tr><td style="font-weight:bold;vertical-align:top">max-age</td><td valign="top">:</td><td><div></div></td></tr><tr><td style="font-weight:bold;vertical-align:top">path</td><td valign="top">:</td><td><div>/</div></td></tr><tr><td style="font-weight:bold;vertical-align:top">secure</td><td valign="top">:</td><td><div></div></td></tr><tr><td style="font-weight:bold;vertical-align:top">version</td><td valign="top">:</td><td><div></div></td></tr></table></div></td></tr></table></div></td></tr><tr><td style="font-weight:bold;vertical-align:top">delimiters</td><td valign="top">:</td><td><div><table><tr><td><div>{{</div></td></tr><tr><td><div>}}</div></td></tr></table></div></td></tr><tr><td style="font-weight:bold;vertical-align:top">files</td><td valign="top">:</td><td><div><table><tr><td><div>/Tank/static/js/jquery.js</div></td></tr><tr><td><div>/Tank/static/css/calendar.css</div></td></tr><tr><td><div>/Tank/static/js/calendar.js</div></td></tr><tr><td><div>/Tank/static/js/web2py.js</div></td></tr><tr><td><div>/Tank/static/jquery.sparkline.js</div></td></tr><tr><td><div>/Tank/static/jquery.timers-1.2.js</div></td></tr><tr><td><div>/Tank/static/css/web2py.css</div></td></tr><tr><td><div>/Tank/static/css/bootstrap.min.css</div></td></tr><tr><td><div>/Tank/static/css/bootstrap-responsive.min.css</div></td></tr><tr><td><div>/Tank/static/css/web2py_bootstrap.css</div></td></tr></table></div></td></tr><tr><td style="font-weight:bold;vertical-align:top">flash</td><td valign="top">:</td><td><div></div></td></tr><tr><td style="font-weight:bold;vertical-align:top">generic_patterns</td><td valign="top">:</td><td><div><table></table></div></td></tr><tr><td style="font-weight:bold;vertical-align:top">headers</td><td valign="top">:</td><td><div><table><tr><td style="font-weight:bold;vertical-align:top">X-Powered-By</td><td valign="top">:</td><td><div>web2py</div></td></tr></table></div></td></tr><tr><td style="font-weight:bold;vertical-align:top">menu</td><td valign="top">:</td><td><div><table><tr><td><div><table><tr><td><div>Overview</div></td></tr><tr><td><div>False</div></td></tr><tr><td><div>/Tank/default/index</div></td></tr><tr><td><div><table></table></div></td></tr></table></div></td></tr><tr><td><div><table><tr><td><div>Graphs</div></td></tr><tr><td><div>True</div></td></tr><tr><td><div>/Tank/default/graphs</div></td></tr><tr><td><div><table></table></div></td></tr></table></div></td></tr><tr><td><div><table><tr><td><div>Configuration</div></td></tr><tr><td><div>False</div></td></tr><tr><td><div>/Tank/default/config</div></td></tr><tr><td><div><table></table></div></td></tr></table></div></td></tr></table></div></td></tr><tr><td style="font-weight:bold;vertical-align:top">meta</td><td valign="top">:</td><td><div><table><tr><td style="font-weight:bold;vertical-align:top">author</td><td valign="top">:</td><td><div>you &lt;you@example.com&gt;</div></td></tr><tr><td style="font-weight:bold;vertical-align:top">description</td><td valign="top">:</td><td><div></div></td></tr><tr><td style="font-weight:bold;vertical-align:top">keywords</td><td valign="top">:</td><td><div></div></td></tr></table></div></td></tr><tr><td style="font-weight:bold;vertical-align:top">models_to_run</td><td valign="top">:</td><td><div><table><tr><td><div>^\\w+\\.py$</div></td></tr><tr><td><div>^default/\\w+\\.py$</div></td></tr><tr><td><div>^default/graphs/\\w+\\.py$</div></td></tr></table></div></td></tr><tr><td style="font-weight:bold;vertical-align:top">postprocessing</td><td valign="top">:</td><td><div><table></table></div></td></tr><tr><td style="font-weight:bold;vertical-align:top">session_cookie_expires</td><td valign="top">:</td><td><div>None</div></td></tr><tr><td style="font-weight:bold;vertical-align:top">session_data_name</td><td valign="top">:</td><td><div>session_data_tank</div></td></tr><tr><td style="font-weight:bold;vertical-align:top">session_file</td><td valign="top">:</td><td><div>None</div></td></tr><tr><td style="font-weight:bold;vertical-align:top">session_filename</td><td valign="top">:</td><td><div>/home/pi/web2py/applications/Tank/sessions/192.168.1.79-55d98bff-cae2-4dd5-8acf-19924c266696</div></td></tr><tr><td style="font-weight:bold;vertical-align:top">session_id</td><td valign="top">:</td><td><div>192.168.1.79-55d98bff-cae2-4dd5-8acf-19924c266696</div></td></tr><tr><td style="font-weight:bold;vertical-align:top">session_id_name</td><td valign="top">:</td><td><div>session_id_tank</div></td></tr><tr><td style="font-weight:bold;vertical-align:top">session_new</td><td valign="top">:</td><td><div>False</div></td></tr><tr><td style="font-weight:bold;vertical-align:top">session_storage_type</td><td valign="top">:</td><td><div>file</div></td></tr><tr><td style="font-weight:bold;vertical-align:top">status</td><td valign="top">:</td><td><div>200</div></td></tr><tr><td style="font-weight:bold;vertical-align:top">subtitle</td><td valign="top">:</td><td><div>powered by web2py</div></td></tr><tr><td style="font-weight:bold;vertical-align:top">title</td><td valign="top">:</td><td><div>My New App</div></td></tr><tr><td style="font-weight:bold;vertical-align:top">view</td><td valign="top">:</td><td><div>default/graphs.html</div></td></tr></table></div>'
tRp124
sS'locals'
p125
(dp126
S'Service'
p127
S"<class 'gluon.tools.Service'>"
p128
sS'OBJECT'
p129
S"<class 'gluon.html.OBJECT'>"
p130
sS'SQLDB'
p131
S"<class 'gluon.dal.DAL'>"
p132
sg117
S'<Storage {}>'
p133
sS'LINK'
p134
S"<class 'gluon.html.LINK'>"
p135
sS'BR'
p136
S"<class 'gluon.html.BR'>"
p137
sS'local_import'
p138
S'<function <lambda>>'
p139
sS'OPTGROUP'
p140
S"<class 'gluon.html.OPTGROUP'>"
p141
sS'__package__'
p142
S'None'
p143
sS'PRE'
p144
S"<class 'gluon.html.PRE'>"
p145
sS'IS_INT_IN_RANGE'
p146
S"<class 'gluon.validators.IS_INT_IN_RANGE'>"
p147
sS'left_sidebar_enabled'
p148
S'False'
p149
sS'IS_LOWER'
p150
S"<class 'gluon.validators.IS_LOWER'>"
p151
sS'IS_STRONG'
p152
S"<class 'gluon.validators.IS_STRONG'>"
p153
sS'cache'
p154
S'<gluon.cache.Cache object>'
p155
sS'IS_IN_DB'
p156
S"<class 'gluon.validators.IS_IN_DB'>"
p157
sS'TAG'
p158
S'<gluon.html.__TAG__ object>'
p159
sS'SQLField'
p160
S"<class 'gluon.dal.Field'>"
p161
sS'mail'
p162
S'<gluon.tools.Mail object>'
p163
sS'BODY'
p164
S"<class 'gluon.html.BODY'>"
p165
sS'IS_DATE_IN_RANGE'
p166
S"<class 'gluon.validators.IS_DATE_IN_RANGE'>"
p167
sS'IFRAME'
p168
S"<class 'gluon.html.IFRAME'>"
p169
sS'URL'
p170
S'<function URL>'
p171
sS'__file__'
p172
S"'/home/pi/web2py/applications/Tank/views/default/graphs.html'"
p173
sS'db'
p174
S'<DAL uri="sqlite://storage.sqlite">'
p175
sS'auth'
p176
S'<gluon.tools.Auth object>'
p177
sS'P'
S"<class 'gluon.html.P'>"
p178
sS'TFOOT'
p179
S"<class 'gluon.html.TFOOT'>"
p180
sS'XHTML'
p181
S"<class 'gluon.html.XHTML'>"
p182
sS'ON'
p183
S'True'
p184
sS'OL'
p185
S"<class 'gluon.html.OL'>"
p186
sS'TEXTAREA'
p187
S"<class 'gluon.html.TEXTAREA'>"
p188
sS'settings'
p189
S"<Storage {'layout_theme': 'Default', 'subtitle':...l_server': 'localhost', 'login_method': 'local'}>"
p190
sS'MENU'
p191
S"<class 'gluon.html.MENU'>"
p192
sS'IS_IMAGE'
p193
S"<class 'gluon.validators.IS_IMAGE'>"
p194
sS'EM'
p195
S"<class 'gluon.html.EM'>"
p196
sS'CODE'
p197
S"<class 'gluon.html.CODE'>"
p198
sS'HTTP'
p199
S"<class 'gluon.http.HTTP'>"
p200
sS'HR'
p201
S"<class 'gluon.html.HR'>"
p202
sS'IS_DATETIME'
p203
S"<class 'gluon.validators.IS_DATETIME'>"
p204
sS'Storage'
p205
S"<class 'gluon.storage.Storage'>"
p206
sS'STYLE'
p207
S"<class 'gluon.html.STYLE'>"
p208
sS'LABEL'
p209
S"<class 'gluon.html.LABEL'>"
p210
sS'CLEANUP'
p211
S"<class 'gluon.validators.CLEANUP'>"
p212
sS'plugins'
p213
S'<gluon.tools.PluginManager object>'
p214
sS'SELECT'
p215
S"<class 'gluon.html.SELECT'>"
p216
sS'use_janrain'
p217
S'<function use_janrain>'
p218
sS'CENTER'
p219
S"<class 'gluon.html.CENTER'>"
p220
sS'prettydate'
p221
S'<function prettydate>'
p222
sS'Crud'
p223
S"<class 'gluon.tools.Crud'>"
p224
sS'Auth'
p225
S"<class 'gluon.tools.Auth'>"
p226
sS'__builtins__'
p227
S"{'ArithmeticError': <type 'exceptions.ArithmeticError'>, 'AssertionError': <type 'exceptions.AssertionError'>, 'AttributeError': <type 'exceptions.AttributeError'>, 'BaseException': <type 'exceptions.BaseException'>, 'BufferError': <type 'exceptions.BufferError'>, 'BytesWarning': <type 'exceptions.BytesWarning'>, 'DeprecationWarning': <type 'exceptions.DeprecationWarning'>, 'EOFError': <type 'exceptions.EOFError'>, 'Ellipsis': Ellipsis, 'EnvironmentError': <type 'exceptions.EnvironmentError'>, ...}"
p228
sS'HTML'
p229
S"<class 'gluon.html.HTML'>"
p230
sS'SQLFORM'
p231
S"<class 'gluon.sqlhtml.SQLFORM'>"
p232
sS'LOAD'
p233
S'<function LOAD>'
p234
sS'redirect'
p235
S'<function redirect>'
p236
sS'FIELDSET'
p237
S"<class 'gluon.html.FIELDSET'>"
p238
sS'IS_EQUAL_TO'
p239
S"<class 'gluon.validators.IS_EQUAL_TO'>"
p240
sS'embed64'
p241
S'<function embed64>'
p242
sS'IS_LIST_OF'
p243
S"<class 'gluon.validators.IS_LIST_OF'>"
p244
sS'INPUT'
p245
S"<class 'gluon.html.INPUT'>"
p246
sS'EMBED'
p247
S"<class 'gluon.html.EMBED'>"
p248
sS'FORM'
p249
S"<class 'gluon.html.FORM'>"
p250
sS'H2'
p251
S"<class 'gluon.html.H2'>"
p252
sS'H3'
p253
S"<class 'gluon.html.H3'>"
p254
sS'BUTTON'
p255
S"<class 'gluon.html.BUTTON'>"
p256
sS'H1'
p257
S"<class 'gluon.html.H1'>"
p258
sS'H6'
p259
S"<class 'gluon.html.H6'>"
p260
sS'H4'
p261
S"<class 'gluon.html.H4'>"
p262
sS'H5'
p263
S"<class 'gluon.html.H5'>"
p264
sS'UL'
p265
S"<class 'gluon.html.UL'>"
p266
sS'IS_UPPER'
p267
S"<class 'gluon.validators.IS_UPPER'>"
p268
sS'xmlescape'
p269
S'<function xmlescape>'
p270
sS'IS_TIME'
p271
S"<class 'gluon.validators.IS_TIME'>"
p272
sS'OPTION'
p273
S"<class 'gluon.html.OPTION'>"
p274
sS'TITLE'
p275
S"<class 'gluon.html.TITLE'>"
p276
sS'CRYPT'
p277
S"<class 'gluon.validators.CRYPT'>"
p278
sS'IS_EMPTY_OR'
p279
S"<class 'gluon.validators.IS_EMPTY_OR'>"
p280
sS'MARKMIN'
p281
S"<class 'gluon.html.MARKMIN'>"
p282
sS'__name__'
p283
S"'__restricted__'"
p284
sS'STRONG'
p285
S"<class 'gluon.html.STRONG'>"
p286
sS'COL'
p287
S"<class 'gluon.html.COL'>"
p288
sS'service'
p289
S'<gluon.tools.Service object>'
p290
sS'SCRIPT'
p291
S"<class 'gluon.html.SCRIPT'>"
p292
sS'is_mobile'
p293
g149
sS'TABLE'
p294
S"<class 'gluon.html.TABLE'>"
p295
sS'IS_IPV4'
p296
S"<class 'gluon.validators.IS_IPV4'>"
p297
sS'IS_LENGTH'
p298
S"<class 'gluon.validators.IS_LENGTH'>"
p299
sS'IS_IPV6'
p300
S"<class 'gluon.validators.IS_IPV6'>"
p301
sS'XML'
p302
S"<class 'gluon.html.XML'>"
p303
sS'B'
S"<class 'gluon.html.B'>"
p304
sS'IMG'
p305
S"<class 'gluon.html.IMG'>"
p306
sS'SQLTABLE'
p307
S"<class 'gluon.sqlhtml.SQLTABLE'>"
p308
sS'IS_MATCH'
p309
S"<class 'gluon.validators.IS_MATCH'>"
p310
sS'IS_ALPHANUMERIC'
p311
S"<class 'gluon.validators.IS_ALPHANUMERIC'>"
p312
sS'SPAN'
p313
S"<class 'gluon.html.SPAN'>"
p314
sS'IS_JSON'
p315
S"<class 'gluon.validators.IS_JSON'>"
p316
sS'IS_IPADDRESS'
p317
S"<class 'gluon.validators.IS_IPADDRESS'>"
p318
sS'IS_SLUG'
p319
S"<class 'gluon.validators.IS_SLUG'>"
p320
sS'BEAUTIFY'
p321
S"<class 'gluon.html.BEAUTIFY'>"
p322
sS'META'
p323
S"<class 'gluon.html.META'>"
p324
sS'IS_DATE'
p325
S"<class 'gluon.validators.IS_DATE'>"
p326
sS'IS_EMAIL'
p327
S"<class 'gluon.validators.IS_EMAIL'>"
p328
sS'IS_NOT_EMPTY'
p329
S"<class 'gluon.validators.IS_NOT_EMPTY'>"
p330
sS'IS_FLOAT_IN_RANGE'
p331
S"<class 'gluon.validators.IS_FLOAT_IN_RANGE'>"
p332
sS'TBODY'
p333
S"<class 'gluon.html.TBODY'>"
p334
sS'CAT'
p335
S"<class 'gluon.html.CAT'>"
p336
sS'Field'
p337
S"<class 'gluon.dal.Field'>"
p338
sS'middle_columns'
p339
S"'span12'"
p340
sS'DIV'
p341
S"<class 'gluon.html.DIV'>"
p342
sS'LEGEND'
p343
S"<class 'gluon.html.LEGEND'>"
p344
sS'COLGROUP'
p345
S"<class 'gluon.html.COLGROUP'>"
p346
sS'DAL'
p347
S"<class 'gluon.dal.DAL'>"
p348
sS'TT'
p349
S"<class 'gluon.html.TT'>"
p350
sS'TR'
p351
S"<class 'gluon.html.TR'>"
p352
sS'LI'
p353
S"<class 'gluon.html.LI'>"
p354
sS'right_sidebar_enabled'
p355
g149
sS'TH'
p356
S"<class 'gluon.html.TH'>"
p357
sS'TD'
p358
S"<class 'gluon.html.TD'>"
p359
sS'PluginManager'
p360
S"<class 'gluon.tools.PluginManager'>"
p361
sS'IS_URL'
p362
S"<class 'gluon.validators.IS_URL'>"
p363
sS'A'
S"<class 'gluon.html.A'>"
p364
sS'HEAD'
p365
S"<class 'gluon.html.HEAD'>"
p366
sS'IS_DATETIME_IN_RANGE'
p367
S"<class 'gluon.validators.IS_DATETIME_IN_RANGE'>"
p368
sS'populate'
p369
S'<function populate>'
p370
sS'I'
S"<class 'gluon.html.I'>"
p371
sS'crud'
p372
S'<gluon.tools.Crud object>'
p373
sS'IS_NOT_IN_DB'
p374
S"<class 'gluon.validators.IS_NOT_IN_DB'>"
p375
sg123
S"<Storage {'body': <cStringIO.StringO object at 0...a> at 0x239e730>, 'view': 'default/graphs.html'}>"
p376
sS'THEAD'
p377
S"<class 'gluon.html.THEAD'>"
p378
sS'ANY_OF'
p379
S"<class 'gluon.validators.ANY_OF'>"
p380
sS'IS_NULL_OR'
p381
S"<class 'gluon.validators.IS_EMPTY_OR'>"
p382
sg56
S"<Storage {'function': 'graphs', 'body': <cString.../applications/Tank/', 'post_vars': <Storage {}>}>"
p383
sS'IS_EXPR'
p384
S"<class 'gluon.validators.IS_EXPR'>"
p385
sS'T'
S'<gluon.languages.translator object>'
p386
sS'IS_IN_SET'
p387
S"<class 'gluon.validators.IS_IN_SET'>"
p388
sS'IS_UPLOAD_FILENAME'
p389
S"<class 'gluon.validators.IS_UPLOAD_FILENAME'>"
p390
sS'IS_DECIMAL_IN_RANGE'
p391
S"<class 'gluon.validators.IS_DECIMAL_IN_RANGE'>"
p392
sssS'traceback'
p393
S'Traceback (most recent call last):\n  File "/home/pi/web2py/gluon/restricted.py", line 212, in restricted\n    exec ccode in environment\n  File "/home/pi/web2py/applications/Tank/views/default/graphs.html", line 87, in <module>\n    axisLabelPadding: 6\nNameError: name \'data\' is not defined\n'
p394
s.